
build/output.elf:     file format elf32-littlearm


Disassembly of section .init:

00008000 <_start>:
    8000:	ea00001f 	b	8084 <main>

Disassembly of section .text:

00008004 <GetGpioAddress>:
    8004:	e59f0074 	ldr	r0, [pc, #116]	; 8080 <SetGpio+0x3c>
    8008:	e1a0f00e 	mov	pc, lr

0000800c <SetGpioFunction>:
    800c:	e3500035 	cmp	r0, #53	; 0x35
    8010:	93510007 	cmpls	r1, #7
    8014:	81a0f00e 	movhi	pc, lr
    8018:	e52de004 	push	{lr}		; (str lr, [sp, #-4]!)
    801c:	e1a02000 	mov	r2, r0
    8020:	ebfffff7 	bl	8004 <GetGpioAddress>

00008024 <functionLoop$>:
    8024:	e3520009 	cmp	r2, #9
    8028:	8242200a 	subhi	r2, r2, #10
    802c:	82800004 	addhi	r0, r0, #4
    8030:	8afffffb 	bhi	8024 <functionLoop$>
    8034:	e0822082 	add	r2, r2, r2, lsl #1
    8038:	e1a01211 	lsl	r1, r1, r2
    803c:	e5801000 	str	r1, [r0]
    8040:	e49df004 	pop	{pc}		; (ldr pc, [sp], #4)

00008044 <SetGpio>:
    8044:	e3500035 	cmp	r0, #53	; 0x35
    8048:	81a0f00e 	movhi	pc, lr
    804c:	e52de004 	push	{lr}		; (str lr, [sp, #-4]!)
    8050:	e1a02000 	mov	r2, r0
    8054:	ebffffea 	bl	8004 <GetGpioAddress>
    8058:	e1a032a2 	lsr	r3, r2, #5
    805c:	e1a03103 	lsl	r3, r3, #2
    8060:	e0800003 	add	r0, r0, r3
    8064:	e202201f 	and	r2, r2, #31
    8068:	e3a03001 	mov	r3, #1
    806c:	e1a03213 	lsl	r3, r3, r2
    8070:	e3310000 	teq	r1, #0
    8074:	05803028 	streq	r3, [r0, #40]	; 0x28
    8078:	1580301c 	strne	r3, [r0, #28]
    807c:	e49df004 	pop	{pc}		; (ldr pc, [sp], #4)
    8080:	20200000 	.word	0x20200000

00008084 <main>:
    8084:	e3a0d902 	mov	sp, #32768	; 0x8000
    8088:	e3a06000 	mov	r6, #0
    808c:	e3a00010 	mov	r0, #16
    8090:	e3a01001 	mov	r1, #1
    8094:	ebffffdc 	bl	800c <SetGpioFunction>

00008098 <blinkLoop$>:
    8098:	eb000010 	bl	80e0 <Wait>
    809c:	e3560000 	cmp	r6, #0
    80a0:	1a000000 	bne	80a8 <turnOff$>
    80a4:	ea000004 	b	80bc <turnOn$>

000080a8 <turnOff$>:
    80a8:	e3a00010 	mov	r0, #16
    80ac:	e3a01000 	mov	r1, #0
    80b0:	ebffffe3 	bl	8044 <SetGpio>
    80b4:	e3a06000 	mov	r6, #0
    80b8:	eafffff6 	b	8098 <blinkLoop$>

000080bc <turnOn$>:
    80bc:	e3a00010 	mov	r0, #16
    80c0:	e3a01001 	mov	r1, #1
    80c4:	ebffffde 	bl	8044 <SetGpio>
    80c8:	e3a06001 	mov	r6, #1
    80cc:	eafffff1 	b	8098 <blinkLoop$>

000080d0 <GetCurrentTimeStamp>:
    80d0:	e52de004 	push	{lr}		; (str lr, [sp, #-4]!)
    80d4:	e59f2028 	ldr	r2, [pc, #40]	; 8104 <waitLoop$+0x10>
    80d8:	e5920000 	ldr	r0, [r2]
    80dc:	e49df004 	pop	{pc}		; (ldr pc, [sp], #4)

000080e0 <Wait>:
    80e0:	e52de004 	push	{lr}		; (str lr, [sp, #-4]!)
    80e4:	e59f501c 	ldr	r5, [pc, #28]	; 8108 <waitLoop$+0x14>
    80e8:	ebfffff8 	bl	80d0 <GetCurrentTimeStamp>
    80ec:	e0800005 	add	r0, r0, r5
    80f0:	e1a01000 	mov	r1, r0

000080f4 <waitLoop$>:
    80f4:	ebfffff5 	bl	80d0 <GetCurrentTimeStamp>
    80f8:	e1510000 	cmp	r1, r0
    80fc:	8afffffc 	bhi	80f4 <waitLoop$>
    8100:	e49df004 	pop	{pc}		; (ldr pc, [sp], #4)
    8104:	20003004 	.word	0x20003004
    8108:	0007a120 	.word	0x0007a120
